target datalayout = "e-m:e-p270:32:32-p271:32:32-p272:64:64-i64:64-i128:128-f80:128-n8:16:32:64-S128"
target triple = "x86_64-pc-linux-gnu"

%struct._zend_alloc_globals = type { ptr }
%struct._zend_mm_heap = type { i32, ptr, i64, i64, [30 x ptr], i64, i64, i64, i32, ptr, ptr, ptr, i32, i32, i32, double, i32, i32, %struct.anon, ptr }
%struct.anon = type { ptr, ptr, ptr }
%struct._zend_mm_chunk = type { ptr, ptr, ptr, i32, i32, i32, [28 x i8], %struct._zend_mm_heap, [8 x i64], [512 x i32] }
%struct._zend_mm_storage = type { %struct._zend_mm_handlers, ptr }
%struct._zend_mm_handlers = type { ptr, ptr, ptr, ptr }

@alloc_globals = internal global %struct._zend_alloc_globals zeroinitializer, align 8
@stderr = external global ptr, align 8
@.str.4 = private unnamed_addr constant [27 x i8] c"\0Amunmap() failed: [%d] %s\0A\00", align 1

; Function Attrs: nounwind uwtable
define internal void @zend_mm_munmap(ptr noundef %0, i64 noundef %1) #0 {
  %3 = alloca ptr, align 8
  %4 = alloca i64, align 8
  store ptr %0, ptr %3, align 8
  store i64 %1, ptr %4, align 8
  %5 = load ptr, ptr %3, align 8
  %6 = load i64, ptr %4, align 8
  %7 = call i32 @munmap(ptr noundef %5, i64 noundef %6) #20
  %8 = icmp ne i32 %7, 0
  br i1 %8, label %9, label %17

9:                                                ; preds = %2
  %10 = load ptr, ptr @stderr, align 8
  %11 = call ptr @__errno_location() #28
  %12 = load i32, ptr %11, align 4
  %13 = call ptr @__errno_location() #28
  %14 = load i32, ptr %13, align 4
  %15 = call ptr @strerror(i32 noundef %14) #20
  %16 = call i32 (ptr, ptr, ...) @fprintf(ptr noundef %10, ptr noundef @.str.4, i32 noundef %12, ptr noundef %15) #20
  br label %17

17:                                               ; preds = %9, %2
  ret void
}

; Function Attrs: nounwind uwtable
define internal void @zend_mm_chunk_free(ptr noundef %0, ptr noundef %1, i64 noundef %2) #0 {
  %4 = alloca ptr, align 8
  %5 = alloca ptr, align 8
  %6 = alloca i64, align 8
  store ptr %0, ptr %4, align 8
  store ptr %1, ptr %5, align 8
  store i64 %2, ptr %6, align 8
  %7 = load ptr, ptr %4, align 8
  %8 = getelementptr inbounds %struct._zend_mm_heap, ptr %7, i32 0, i32 1
  %9 = load ptr, ptr %8, align 8
  %10 = icmp ne ptr %9, null
  %11 = xor i1 %10, true
  %12 = xor i1 %11, true
  %13 = zext i1 %12 to i32
  %14 = sext i32 %13 to i64
  %15 = icmp ne i64 %14, 0
  br i1 %15, label %16, label %28

16:                                               ; preds = %3
  %17 = load ptr, ptr %4, align 8
  %18 = getelementptr inbounds %struct._zend_mm_heap, ptr %17, i32 0, i32 1
  %19 = load ptr, ptr %18, align 8
  %20 = getelementptr inbounds %struct._zend_mm_storage, ptr %19, i32 0, i32 0
  %21 = getelementptr inbounds %struct._zend_mm_handlers, ptr %20, i32 0, i32 1
  %22 = load ptr, ptr %21, align 8
  %23 = load ptr, ptr %4, align 8
  %24 = getelementptr inbounds %struct._zend_mm_heap, ptr %23, i32 0, i32 1
  %25 = load ptr, ptr %24, align 8
  %26 = load ptr, ptr %5, align 8
  %27 = load i64, ptr %6, align 8
  call void %22(ptr noundef %25, ptr noundef %26, i64 noundef %27)
  br label %31

28:                                               ; preds = %3
  %29 = load ptr, ptr %5, align 8
  %30 = load i64, ptr %6, align 8
  call void @zend_mm_munmap(ptr noundef %29, i64 noundef %30)
  br label %31

31:                                               ; preds = %28, %16
  ret void
}

; Function Attrs: nounwind uwtable
define i32 @zend_set_memory_limit(i64 noundef %0) #0 {
  %2 = alloca i32, align 4
  %3 = alloca i64, align 8
  %4 = alloca ptr, align 8
  %5 = alloca ptr, align 8
  store i64 %0, ptr %3, align 8
  %6 = load ptr, ptr @alloc_globals, align 8
  store ptr %6, ptr %4, align 8
  %7 = load i64, ptr %3, align 8
  %8 = load ptr, ptr %4, align 8
  %9 = getelementptr inbounds %struct._zend_mm_heap, ptr %8, i32 0, i32 5
  %10 = load i64, ptr %9, align 8
  %11 = icmp ult i64 %7, %10
  %12 = xor i1 %11, true
  %13 = xor i1 %12, true
  %14 = zext i1 %13 to i32
  %15 = sext i32 %14 to i64
  %16 = icmp ne i64 %15, 0
  br i1 %16, label %17, label %57

17:                                               ; preds = %1
  %18 = load i64, ptr %3, align 8
  %19 = load ptr, ptr %4, align 8
  %20 = getelementptr inbounds %struct._zend_mm_heap, ptr %19, i32 0, i32 5
  %21 = load i64, ptr %20, align 8
  %22 = load ptr, ptr %4, align 8
  %23 = getelementptr inbounds %struct._zend_mm_heap, ptr %22, i32 0, i32 14
  %24 = load i32, ptr %23, align 8
  %25 = sext i32 %24 to i64
  %26 = mul i64 %25, 2097152
  %27 = sub i64 %21, %26
  %28 = icmp uge i64 %18, %27
  br i1 %28, label %29, label %56

29:                                               ; preds = %17
  br label %30

30:                                               ; preds = %49, %29
  %31 = load ptr, ptr %4, align 8
  %32 = getelementptr inbounds %struct._zend_mm_heap, ptr %31, i32 0, i32 11
  %33 = load ptr, ptr %32, align 8
  store ptr %33, ptr %5, align 8
  %34 = load ptr, ptr %5, align 8
  %35 = getelementptr inbounds %struct._zend_mm_chunk, ptr %34, i32 0, i32 1
  %36 = load ptr, ptr %35, align 8
  %37 = load ptr, ptr %4, align 8
  %38 = getelementptr inbounds %struct._zend_mm_heap, ptr %37, i32 0, i32 11
  store ptr %36, ptr %38, align 8
  %39 = load ptr, ptr %4, align 8
  %40 = load ptr, ptr %5, align 8
  call void @zend_mm_chunk_free(ptr noundef %39, ptr noundef %40, i64 noundef 2097152)
  %41 = load ptr, ptr %4, align 8
  %42 = getelementptr inbounds %struct._zend_mm_heap, ptr %41, i32 0, i32 14
  %43 = load i32, ptr %42, align 8
  %44 = add nsw i32 %43, -1
  store i32 %44, ptr %42, align 8
  %45 = load ptr, ptr %4, align 8
  %46 = getelementptr inbounds %struct._zend_mm_heap, ptr %45, i32 0, i32 5
  %47 = load i64, ptr %46, align 8
  %48 = sub i64 %47, 2097152
  store i64 %48, ptr %46, align 8
  br label %49

49:                                               ; preds = %30
  %50 = load i64, ptr %3, align 8
  %51 = load ptr, ptr %4, align 8
  %52 = getelementptr inbounds %struct._zend_mm_heap, ptr %51, i32 0, i32 5
  %53 = load i64, ptr %52, align 8
  %54 = icmp ult i64 %50, %53
  br i1 %54, label %30, label %55

55:                                               ; preds = %49
  store i32 0, ptr %2, align 4
  br label %61

56:                                               ; preds = %17
  store i32 -1, ptr %2, align 4
  br label %61

57:                                               ; preds = %1
  %58 = load i64, ptr %3, align 8
  %59 = load ptr, ptr @alloc_globals, align 8
  %60 = getelementptr inbounds %struct._zend_mm_heap, ptr %59, i32 0, i32 7
  store i64 %58, ptr %60, align 8
  store i32 0, ptr %2, align 4
  br label %61

61:                                               ; preds = %57, %56, %55
  %62 = load i32, ptr %2, align 4
  ret i32 %62
}