; Function Attrs: nounwind uwtable
define noundef i32 @zend_set_memory_limit(i64 noundef %0) local_unnamed_addr #0 {
  %2 = load ptr, ptr @alloc_globals.0, align 8
  %3 = getelementptr inbounds i8, ptr %2, i64 272
  %4 = load i64, ptr %3, align 8
  %5 = icmp ugt i64 %4, %0
  br i1 %5, label %6, label %34

6:                                                ; preds = %1
  %7 = getelementptr inbounds i8, ptr %2, i64 336
  %8 = load i32, ptr %7, align 8
  %9 = sext i32 %8 to i64
  %10 = shl nsw i64 %9, 21
  %11 = sub i64 %4, %10
  %.not = icmp ugt i64 %11, %0
  br i1 %.not, label %.loopexit, label %.preheader

.preheader:                                       ; preds = %6
  %12 = getelementptr inbounds i8, ptr %2, i64 320
  %13 = getelementptr i8, ptr %2, i64 8
  br label %14

14:                                               ; preds = %.preheader, %zend_mm_chunk_free.exit
  %15 = load ptr, ptr %12, align 8
  %16 = getelementptr inbounds i8, ptr %15, i64 8
  %17 = load ptr, ptr %16, align 8
  store ptr %17, ptr %12, align 8
  %.val = load ptr, ptr %13, align 8
  %.not.i = icmp eq ptr %.val, null
  br i1 %.not.i, label %21, label %18

18:                                               ; preds = %14
  %19 = getelementptr inbounds i8, ptr %.val, i64 8
  %20 = load ptr, ptr %19, align 8
  tail call void %20(ptr noundef nonnull %.val, ptr noundef nonnull %15, i64 noundef 2097152) #35
  br label %zend_mm_chunk_free.exit

21:                                               ; preds = %14
  %22 = tail call i32 @munmap(ptr noundef nonnull %15, i64 noundef 2097152) #35
  %.not.i.i = icmp eq i32 %22, 0
  br i1 %.not.i.i, label %zend_mm_chunk_free.exit, label %23

23:                                               ; preds = %21
  %24 = load ptr, ptr @stderr, align 8
  %25 = tail call ptr @__errno_location() #36
  %26 = load i32, ptr %25, align 4
  %27 = tail call ptr @strerror(i32 noundef %26) #35
  %28 = tail call i32 (ptr, ptr, ...) @fprintf(ptr noundef %24, ptr noundef nonnull @.str.4, i32 noundef %26, ptr noundef %27) #37
  br label %zend_mm_chunk_free.exit

zend_mm_chunk_free.exit:                          ; preds = %18, %21, %23
  %29 = load i32, ptr %7, align 8
  %30 = add nsw i32 %29, -1
  store i32 %30, ptr %7, align 8
  %31 = load i64, ptr %3, align 8
  %32 = add i64 %31, -2097152
  store i64 %32, ptr %3, align 8
  %33 = icmp ugt i64 %32, %0
  br i1 %33, label %14, label %.loopexit

34:                                               ; preds = %1
  %35 = getelementptr inbounds i8, ptr %2, i64 288
  store i64 %0, ptr %35, align 8
  br label %.loopexit

.loopexit:                                        ; preds = %zend_mm_chunk_free.exit, %6, %34
  %.0 = phi i32 [ 0, %34 ], [ -1, %6 ], [ 0, %zend_mm_chunk_free.exit ]
  ret i32 %.0
}